; Function Attrs: nofree norecurse nosync nounwind memory(read, inaccessiblemem: none) uwtable
define range(i32 0, 2) i32 @Abc_ObjHasDupFanins(ptr noundef readonly captures(none) %0) local_unnamed_addr #5 {
  %2 = getelementptr inbounds nuw i8, ptr %0, i64 32
  %3 = load ptr, ptr %2, align 8, !tbaa !58
  %4 = getelementptr i8, ptr %0, i64 28
  %.val = load i32, ptr %4, align 4, !tbaa !59
  %5 = icmp sgt i32 %.val, 0
  br i1 %5, label %.lr.ph20.preheader, label %.loopexit16

.lr.ph20.preheader:                               ; preds = %1
  %6 = zext nneg i32 %.val to i64
  %wide.trip.count28 = zext nneg i32 %.val to i64
  br label %.lr.ph20

.loopexit:                                        ; preds = %10, %.lr.ph20
  %indvars.iv.next = add nuw nsw i64 %indvars.iv, 1
  %exitcond29.not = icmp eq i64 %indvars.iv.next26, %wide.trip.count28
  br i1 %exitcond29.not, label %.loopexit16, label %.lr.ph20, !llvm.loop !60

.lr.ph20:                                         ; preds = %.lr.ph20.preheader, %.loopexit
  %indvars.iv25 = phi i64 [ 0, %.lr.ph20.preheader ], [ %indvars.iv.next26, %.loopexit ]
  %indvars.iv = phi i64 [ 1, %.lr.ph20.preheader ], [ %indvars.iv.next, %.loopexit ]
  %indvars.iv.next26 = add nuw nsw i64 %indvars.iv25, 1
  %7 = icmp samesign ult i64 %indvars.iv.next26, %6
  br i1 %7, label %.lr.ph, label %.loopexit

.lr.ph:                                           ; preds = %.lr.ph20
  %8 = getelementptr inbounds nuw i32, ptr %3, i64 %indvars.iv25
  %9 = load i32, ptr %8, align 4, !tbaa !15
  br label %11

10:                                               ; preds = %11
  %indvars.iv.next23 = add nuw nsw i64 %indvars.iv22, 1
  %exitcond.not = icmp eq i64 %indvars.iv.next23, %wide.trip.count28
  br i1 %exitcond.not, label %.loopexit, label %11, !llvm.loop !61

11:                                               ; preds = %.lr.ph, %10
  %indvars.iv22 = phi i64 [ %indvars.iv, %.lr.ph ], [ %indvars.iv.next23, %10 ]
  %12 = getelementptr inbounds nuw i32, ptr %3, i64 %indvars.iv22
  %13 = load i32, ptr %12, align 4, !tbaa !15
  %14 = icmp eq i32 %9, %13
  br i1 %14, label %.loopexit16, label %10

.loopexit16:                                      ; preds = %.loopexit, %11, %1
  %.0 = phi i32 [ 0, %1 ], [ 1, %11 ], [ 0, %.loopexit ]
  ret i32 %.0
}